; Function Attrs: mustprogress nofree norecurse nosync nounwind willreturn memory(read, inaccessiblemem: none) uwtable
define hidden noundef zeroext i1 @_ZNK2lp10int_solver11is_feasibleEv(ptr noundef nonnull readonly align 8 captures(none) dereferenceable(32) %0) local_unnamed_addr #9 align 2 {
  %2 = getelementptr inbounds nuw i8, ptr %0, i64 8
  %3 = load ptr, ptr %2, align 8, !tbaa !202
  %4 = getelementptr inbounds nuw i8, ptr %3, i64 472
  %5 = load ptr, ptr %4, align 8, !tbaa !306
  %6 = icmp eq ptr %5, null
  br i1 %6, label %_ZNK2lp19lp_core_solver_baseI8rationalNS_12numeric_pairIS1_EEE21current_x_is_feasibleEv.exit, label %7

7:                                                ; preds = %1
  %8 = getelementptr inbounds i8, ptr %5, i64 -4
  %9 = load i32, ptr %8, align 4, !tbaa !31
  %10 = icmp eq i32 %9, 1
  br label %_ZNK2lp19lp_core_solver_baseI8rationalNS_12numeric_pairIS1_EEE21current_x_is_feasibleEv.exit

_ZNK2lp19lp_core_solver_baseI8rationalNS_12numeric_pairIS1_EEE21current_x_is_feasibleEv.exit: ; preds = %1, %7
  %.0.i.i.i = phi i1 [ %10, %7 ], [ false, %1 ]
  ret i1 %.0.i.i.i
}